target datalayout = "e-m:e-p270:32:32-p271:32:32-p272:64:64-i64:64-i128:128-f80:128-n8:16:32:64-S128"
target triple = "x86_64-pc-linux-gnu"

%"class.base::BasicStringPiece" = type { ptr, i64 }
%"class.net::HpackInputStream" = type <{ %"class.base::BasicStringPiece", i64, i32, i32, i8, [7 x i8] }>

; Function Attrs: mustprogress uwtable
define void @_ZN3net16HpackInputStream20ConsumeByteRemainderEv(ptr noundef nonnull align 8 dereferenceable(33) %0) #2 align 2 {
  %2 = alloca ptr, align 8
  store ptr %0, ptr %2, align 8, !tbaa !3
  %3 = load ptr, ptr %2, align 8
  %4 = getelementptr inbounds nuw %"class.net::HpackInputStream", ptr %3, i32 0, i32 1
  %5 = load i64, ptr %4, align 8, !tbaa !13
  %6 = icmp ne i64 %5, 0
  br i1 %6, label %7, label %11

7:                                                ; preds = %1
  %8 = getelementptr inbounds nuw %"class.net::HpackInputStream", ptr %3, i32 0, i32 1
  %9 = load i64, ptr %8, align 8, !tbaa !13
  %10 = sub i64 8, %9
  call void @_ZN3net16HpackInputStream11ConsumeBitsEm(ptr noundef nonnull align 8 dereferenceable(33) %3, i64 noundef %10)
  br label %11

11:                                               ; preds = %7, %1
  ret void
}