; Function Attrs: mustprogress uwtable
define void @_ZN3net16HpackInputStream20ConsumeByteRemainderEv(ptr noundef nonnull align 8 captures(none) dereferenceable(33) %0) local_unnamed_addr #3 align 2 {
  %2 = getelementptr inbounds nuw i8, ptr %0, i64 16
  %3 = load i64, ptr %2, align 8, !tbaa !16
  %.not = icmp eq i64 %3, 0
  br i1 %.not, label %6, label %4

4:                                                ; preds = %1
  %5 = sub i64 8, %3
  tail call void @_ZN3net16HpackInputStream11ConsumeBitsEm(ptr noundef nonnull align 8 dereferenceable(33) %0, i64 noundef %5)
  br label %6

6:                                                ; preds = %4, %1
  ret void
}